target datalayout = "e-m:e-p270:32:32-p271:32:32-p272:64:64-i64:64-i128:128-f80:128-n8:16:32:64-S128"
target triple = "x86_64-pc-linux-gnu"

; Function Attrs: nounwind uwtable
define internal void @ivi_mc_4x4_no_delta(ptr noundef %0, i64 noundef %1, ptr noundef %2, i64 noundef %3, i32 noundef %4) #0 {
  %6 = alloca ptr, align 8
  %7 = alloca i64, align 8
  %8 = alloca ptr, align 8
  %9 = alloca i64, align 8
  %10 = alloca i32, align 4
  %11 = alloca i32, align 4
  %12 = alloca i32, align 4
  %13 = alloca ptr, align 8
  store ptr %0, ptr %6, align 8, !tbaa !30
  store i64 %1, ptr %7, align 8, !tbaa !11
  store ptr %2, ptr %8, align 8, !tbaa !30
  store i64 %3, ptr %9, align 8, !tbaa !11
  store i32 %4, ptr %10, align 4, !tbaa !13
  call void @llvm.lifetime.start.p0(i64 4, ptr %11) #4
  call void @llvm.lifetime.start.p0(i64 4, ptr %12) #4
  call void @llvm.lifetime.start.p0(i64 8, ptr %13) #4
  %14 = load i32, ptr %10, align 4, !tbaa !13
  switch i32 %14, label %202 [
    i32 0, label %15
    i32 1, label %47
    i32 2, label %90
    i32 3, label %138
  ]

15:                                               ; preds = %5
  store i32 0, ptr %11, align 4, !tbaa !13
  br label %16

16:                                               ; preds = %37, %15
  %17 = load i32, ptr %11, align 4, !tbaa !13
  %18 = icmp slt i32 %17, 4
  br i1 %18, label %19, label %46

19:                                               ; preds = %16
  store i32 0, ptr %12, align 4, !tbaa !13
  br label %20

20:                                               ; preds = %33, %19
  %21 = load i32, ptr %12, align 4, !tbaa !13
  %22 = icmp slt i32 %21, 4
  br i1 %22, label %23, label %36

23:                                               ; preds = %20
  %24 = load ptr, ptr %8, align 8, !tbaa !30
  %25 = load i32, ptr %12, align 4, !tbaa !13
  %26 = sext i32 %25 to i64
  %27 = getelementptr inbounds i16, ptr %24, i64 %26
  %28 = load i16, ptr %27, align 2, !tbaa !32
  %29 = load ptr, ptr %6, align 8, !tbaa !30
  %30 = load i32, ptr %12, align 4, !tbaa !13
  %31 = sext i32 %30 to i64
  %32 = getelementptr inbounds i16, ptr %29, i64 %31
  store i16 %28, ptr %32, align 2, !tbaa !32
  br label %33

33:                                               ; preds = %23
  %34 = load i32, ptr %12, align 4, !tbaa !13
  %35 = add nsw i32 %34, 1
  store i32 %35, ptr %12, align 4, !tbaa !13
  br label %20, !llvm.loop !86

36:                                               ; preds = %20
  br label %37

37:                                               ; preds = %36
  %38 = load i32, ptr %11, align 4, !tbaa !13
  %39 = add nsw i32 %38, 1
  store i32 %39, ptr %11, align 4, !tbaa !13
  %40 = load i64, ptr %7, align 8, !tbaa !11
  %41 = load ptr, ptr %6, align 8, !tbaa !30
  %42 = getelementptr inbounds i16, ptr %41, i64 %40
  store ptr %42, ptr %6, align 8, !tbaa !30
  %43 = load i64, ptr %9, align 8, !tbaa !11
  %44 = load ptr, ptr %8, align 8, !tbaa !30
  %45 = getelementptr inbounds i16, ptr %44, i64 %43
  store ptr %45, ptr %8, align 8, !tbaa !30
  br label %16, !llvm.loop !87

46:                                               ; preds = %16
  br label %202

47:                                               ; preds = %5
  store i32 0, ptr %11, align 4, !tbaa !13
  br label %48

48:                                               ; preds = %80, %47
  %49 = load i32, ptr %11, align 4, !tbaa !13
  %50 = icmp slt i32 %49, 4
  br i1 %50, label %51, label %89

51:                                               ; preds = %48
  store i32 0, ptr %12, align 4, !tbaa !13
  br label %52

52:                                               ; preds = %76, %51
  %53 = load i32, ptr %12, align 4, !tbaa !13
  %54 = icmp slt i32 %53, 4
  br i1 %54, label %55, label %79

55:                                               ; preds = %52
  %56 = load ptr, ptr %8, align 8, !tbaa !30
  %57 = load i32, ptr %12, align 4, !tbaa !13
  %58 = sext i32 %57 to i64
  %59 = getelementptr inbounds i16, ptr %56, i64 %58
  %60 = load i16, ptr %59, align 2, !tbaa !32
  %61 = sext i16 %60 to i32
  %62 = load ptr, ptr %8, align 8, !tbaa !30
  %63 = load i32, ptr %12, align 4, !tbaa !13
  %64 = add nsw i32 %63, 1
  %65 = sext i32 %64 to i64
  %66 = getelementptr inbounds i16, ptr %62, i64 %65
  %67 = load i16, ptr %66, align 2, !tbaa !32
  %68 = sext i16 %67 to i32
  %69 = add nsw i32 %61, %68
  %70 = ashr i32 %69, 1
  %71 = trunc i32 %70 to i16
  %72 = load ptr, ptr %6, align 8, !tbaa !30
  %73 = load i32, ptr %12, align 4, !tbaa !13
  %74 = sext i32 %73 to i64
  %75 = getelementptr inbounds i16, ptr %72, i64 %74
  store i16 %71, ptr %75, align 2, !tbaa !32
  br label %76

76:                                               ; preds = %55
  %77 = load i32, ptr %12, align 4, !tbaa !13
  %78 = add nsw i32 %77, 1
  store i32 %78, ptr %12, align 4, !tbaa !13
  br label %52, !llvm.loop !88

79:                                               ; preds = %52
  br label %80

80:                                               ; preds = %79
  %81 = load i32, ptr %11, align 4, !tbaa !13
  %82 = add nsw i32 %81, 1
  store i32 %82, ptr %11, align 4, !tbaa !13
  %83 = load i64, ptr %7, align 8, !tbaa !11
  %84 = load ptr, ptr %6, align 8, !tbaa !30
  %85 = getelementptr inbounds i16, ptr %84, i64 %83
  store ptr %85, ptr %6, align 8, !tbaa !30
  %86 = load i64, ptr %9, align 8, !tbaa !11
  %87 = load ptr, ptr %8, align 8, !tbaa !30
  %88 = getelementptr inbounds i16, ptr %87, i64 %86
  store ptr %88, ptr %8, align 8, !tbaa !30
  br label %48, !llvm.loop !89

89:                                               ; preds = %48
  br label %202

90:                                               ; preds = %5
  %91 = load ptr, ptr %8, align 8, !tbaa !30
  %92 = load i64, ptr %9, align 8, !tbaa !11
  %93 = getelementptr inbounds i16, ptr %91, i64 %92
  store ptr %93, ptr %13, align 8, !tbaa !30
  store i32 0, ptr %11, align 4, !tbaa !13
  br label %94

94:                                               ; preds = %125, %90
  %95 = load i32, ptr %11, align 4, !tbaa !13
  %96 = icmp slt i32 %95, 4
  br i1 %96, label %97, label %137

97:                                               ; preds = %94
  store i32 0, ptr %12, align 4, !tbaa !13
  br label %98

98:                                               ; preds = %121, %97
  %99 = load i32, ptr %12, align 4, !tbaa !13
  %100 = icmp slt i32 %99, 4
  br i1 %100, label %101, label %124

101:                                              ; preds = %98
  %102 = load ptr, ptr %8, align 8, !tbaa !30
  %103 = load i32, ptr %12, align 4, !tbaa !13
  %104 = sext i32 %103 to i64
  %105 = getelementptr inbounds i16, ptr %102, i64 %104
  %106 = load i16, ptr %105, align 2, !tbaa !32
  %107 = sext i16 %106 to i32
  %108 = load ptr, ptr %13, align 8, !tbaa !30
  %109 = load i32, ptr %12, align 4, !tbaa !13
  %110 = sext i32 %109 to i64
  %111 = getelementptr inbounds i16, ptr %108, i64 %110
  %112 = load i16, ptr %111, align 2, !tbaa !32
  %113 = sext i16 %112 to i32
  %114 = add nsw i32 %107, %113
  %115 = ashr i32 %114, 1
  %116 = trunc i32 %115 to i16
  %117 = load ptr, ptr %6, align 8, !tbaa !30
  %118 = load i32, ptr %12, align 4, !tbaa !13
  %119 = sext i32 %118 to i64
  %120 = getelementptr inbounds i16, ptr %117, i64 %119
  store i16 %116, ptr %120, align 2, !tbaa !32
  br label %121

121:                                              ; preds = %101
  %122 = load i32, ptr %12, align 4, !tbaa !13
  %123 = add nsw i32 %122, 1
  store i32 %123, ptr %12, align 4, !tbaa !13
  br label %98, !llvm.loop !90

124:                                              ; preds = %98
  br label %125

125:                                              ; preds = %124
  %126 = load i32, ptr %11, align 4, !tbaa !13
  %127 = add nsw i32 %126, 1
  store i32 %127, ptr %11, align 4, !tbaa !13
  %128 = load i64, ptr %7, align 8, !tbaa !11
  %129 = load ptr, ptr %6, align 8, !tbaa !30
  %130 = getelementptr inbounds i16, ptr %129, i64 %128
  store ptr %130, ptr %6, align 8, !tbaa !30
  %131 = load i64, ptr %9, align 8, !tbaa !11
  %132 = load ptr, ptr %13, align 8, !tbaa !30
  %133 = getelementptr inbounds i16, ptr %132, i64 %131
  store ptr %133, ptr %13, align 8, !tbaa !30
  %134 = load i64, ptr %9, align 8, !tbaa !11
  %135 = load ptr, ptr %8, align 8, !tbaa !30
  %136 = getelementptr inbounds i16, ptr %135, i64 %134
  store ptr %136, ptr %8, align 8, !tbaa !30
  br label %94, !llvm.loop !91

137:                                              ; preds = %94
  br label %202

138:                                              ; preds = %5
  %139 = load ptr, ptr %8, align 8, !tbaa !30
  %140 = load i64, ptr %9, align 8, !tbaa !11
  %141 = getelementptr inbounds i16, ptr %139, i64 %140
  store ptr %141, ptr %13, align 8, !tbaa !30
  store i32 0, ptr %11, align 4, !tbaa !13
  br label %142

142:                                              ; preds = %189, %138
  %143 = load i32, ptr %11, align 4, !tbaa !13
  %144 = icmp slt i32 %143, 4
  br i1 %144, label %145, label %201

145:                                              ; preds = %142
  store i32 0, ptr %12, align 4, !tbaa !13
  br label %146

146:                                              ; preds = %185, %145
  %147 = load i32, ptr %12, align 4, !tbaa !13
  %148 = icmp slt i32 %147, 4
  br i1 %148, label %149, label %188

149:                                              ; preds = %146
  %150 = load ptr, ptr %8, align 8, !tbaa !30
  %151 = load i32, ptr %12, align 4, !tbaa !13
  %152 = sext i32 %151 to i64
  %153 = getelementptr inbounds i16, ptr %150, i64 %152
  %154 = load i16, ptr %153, align 2, !tbaa !32
  %155 = sext i16 %154 to i32
  %156 = load ptr, ptr %8, align 8, !tbaa !30
  %157 = load i32, ptr %12, align 4, !tbaa !13
  %158 = add nsw i32 %157, 1
  %159 = sext i32 %158 to i64
  %160 = getelementptr inbounds i16, ptr %156, i64 %159
  %161 = load i16, ptr %160, align 2, !tbaa !32
  %162 = sext i16 %161 to i32
  %163 = add nsw i32 %155, %162
  %164 = load ptr, ptr %13, align 8, !tbaa !30
  %165 = load i32, ptr %12, align 4, !tbaa !13
  %166 = sext i32 %165 to i64
  %167 = getelementptr inbounds i16, ptr %164, i64 %166
  %168 = load i16, ptr %167, align 2, !tbaa !32
  %169 = sext i16 %168 to i32
  %170 = add nsw i32 %163, %169
  %171 = load ptr, ptr %13, align 8, !tbaa !30
  %172 = load i32, ptr %12, align 4, !tbaa !13
  %173 = add nsw i32 %172, 1
  %174 = sext i32 %173 to i64
  %175 = getelementptr inbounds i16, ptr %171, i64 %174
  %176 = load i16, ptr %175, align 2, !tbaa !32
  %177 = sext i16 %176 to i32
  %178 = add nsw i32 %170, %177
  %179 = ashr i32 %178, 2
  %180 = trunc i32 %179 to i16
  %181 = load ptr, ptr %6, align 8, !tbaa !30
  %182 = load i32, ptr %12, align 4, !tbaa !13
  %183 = sext i32 %182 to i64
  %184 = getelementptr inbounds i16, ptr %181, i64 %183
  store i16 %180, ptr %184, align 2, !tbaa !32
  br label %185

185:                                              ; preds = %149
  %186 = load i32, ptr %12, align 4, !tbaa !13
  %187 = add nsw i32 %186, 1
  store i32 %187, ptr %12, align 4, !tbaa !13
  br label %146, !llvm.loop !92

188:                                              ; preds = %146
  br label %189

189:                                              ; preds = %188
  %190 = load i32, ptr %11, align 4, !tbaa !13
  %191 = add nsw i32 %190, 1
  store i32 %191, ptr %11, align 4, !tbaa !13
  %192 = load i64, ptr %7, align 8, !tbaa !11
  %193 = load ptr, ptr %6, align 8, !tbaa !30
  %194 = getelementptr inbounds i16, ptr %193, i64 %192
  store ptr %194, ptr %6, align 8, !tbaa !30
  %195 = load i64, ptr %9, align 8, !tbaa !11
  %196 = load ptr, ptr %13, align 8, !tbaa !30
  %197 = getelementptr inbounds i16, ptr %196, i64 %195
  store ptr %197, ptr %13, align 8, !tbaa !30
  %198 = load i64, ptr %9, align 8, !tbaa !11
  %199 = load ptr, ptr %8, align 8, !tbaa !30
  %200 = getelementptr inbounds i16, ptr %199, i64 %198
  store ptr %200, ptr %8, align 8, !tbaa !30
  br label %142, !llvm.loop !93

201:                                              ; preds = %142
  br label %202

202:                                              ; preds = %5, %201, %137, %89, %46
  call void @llvm.lifetime.end.p0(i64 8, ptr %13) #4
  call void @llvm.lifetime.end.p0(i64 4, ptr %12) #4
  call void @llvm.lifetime.end.p0(i64 4, ptr %11) #4
  ret void
}

; Function Attrs: nounwind uwtable
define void @ff_ivi_mc_avg_4x4_delta(ptr noundef %0, ptr noundef %1, ptr noundef %2, i64 noundef %3, i32 noundef %4, i32 noundef %5) #0 {
  %7 = alloca ptr, align 8
  %8 = alloca ptr, align 8
  %9 = alloca ptr, align 8
  %10 = alloca i64, align 8
  %11 = alloca i32, align 4
  %12 = alloca i32, align 4
  %13 = alloca [16 x i16], align 16
  %14 = alloca i32, align 4
  %15 = alloca i32, align 4
  store ptr %0, ptr %7, align 8, !tbaa !30
  store ptr %1, ptr %8, align 8, !tbaa !30
  store ptr %2, ptr %9, align 8, !tbaa !30
  store i64 %3, ptr %10, align 8, !tbaa !11
  store i32 %4, ptr %11, align 4, !tbaa !13
  store i32 %5, ptr %12, align 4, !tbaa !13
  call void @llvm.lifetime.start.p0(i64 32, ptr %13) #4
  call void @llvm.lifetime.start.p0(i64 4, ptr %14) #4
  call void @llvm.lifetime.start.p0(i64 4, ptr %15) #4
  %16 = getelementptr inbounds [16 x i16], ptr %13, i64 0, i64 0
  %17 = load ptr, ptr %8, align 8, !tbaa !30
  %18 = load i64, ptr %10, align 8, !tbaa !11
  %19 = load i32, ptr %11, align 4, !tbaa !13
  call void @ivi_mc_4x4_no_delta(ptr noundef %16, i64 noundef 4, ptr noundef %17, i64 noundef %18, i32 noundef %19)
  %20 = getelementptr inbounds [16 x i16], ptr %13, i64 0, i64 0
  %21 = load ptr, ptr %9, align 8, !tbaa !30
  %22 = load i64, ptr %10, align 8, !tbaa !11
  %23 = load i32, ptr %12, align 4, !tbaa !13
  call void @ivi_mc_4x4_delta(ptr noundef %20, i64 noundef 4, ptr noundef %21, i64 noundef %22, i32 noundef %23)
  store i32 0, ptr %14, align 4, !tbaa !13
  br label %24

24:                                               ; preds = %53, %6
  %25 = load i32, ptr %14, align 4, !tbaa !13
  %26 = icmp slt i32 %25, 4
  br i1 %26, label %27, label %59

27:                                               ; preds = %24
  store i32 0, ptr %15, align 4, !tbaa !13
  br label %28

28:                                               ; preds = %49, %27
  %29 = load i32, ptr %15, align 4, !tbaa !13
  %30 = icmp slt i32 %29, 4
  br i1 %30, label %31, label %52

31:                                               ; preds = %28
  %32 = load i32, ptr %14, align 4, !tbaa !13
  %33 = mul nsw i32 %32, 4
  %34 = load i32, ptr %15, align 4, !tbaa !13
  %35 = add nsw i32 %33, %34
  %36 = sext i32 %35 to i64
  %37 = getelementptr inbounds [16 x i16], ptr %13, i64 0, i64 %36
  %38 = load i16, ptr %37, align 2, !tbaa !32
  %39 = sext i16 %38 to i32
  %40 = ashr i32 %39, 1
  %41 = load ptr, ptr %7, align 8, !tbaa !30
  %42 = load i32, ptr %15, align 4, !tbaa !13
  %43 = sext i32 %42 to i64
  %44 = getelementptr inbounds i16, ptr %41, i64 %43
  %45 = load i16, ptr %44, align 2, !tbaa !32
  %46 = sext i16 %45 to i32
  %47 = add nsw i32 %46, %40
  %48 = trunc i32 %47 to i16
  store i16 %48, ptr %44, align 2, !tbaa !32
  br label %49

49:                                               ; preds = %31
  %50 = load i32, ptr %15, align 4, !tbaa !13
  %51 = add nsw i32 %50, 1
  store i32 %51, ptr %15, align 4, !tbaa !13
  br label %28, !llvm.loop !108

52:                                               ; preds = %28
  br label %53

53:                                               ; preds = %52
  %54 = load i32, ptr %14, align 4, !tbaa !13
  %55 = add nsw i32 %54, 1
  store i32 %55, ptr %14, align 4, !tbaa !13
  %56 = load i64, ptr %10, align 8, !tbaa !11
  %57 = load ptr, ptr %7, align 8, !tbaa !30
  %58 = getelementptr inbounds i16, ptr %57, i64 %56
  store ptr %58, ptr %7, align 8, !tbaa !30
  br label %24, !llvm.loop !109

59:                                               ; preds = %24
  call void @llvm.lifetime.end.p0(i64 4, ptr %15) #4
  call void @llvm.lifetime.end.p0(i64 4, ptr %14) #4
  call void @llvm.lifetime.end.p0(i64 32, ptr %13) #4
  ret void
}